target datalayout = "e-m:e-p270:32:32-p271:32:32-p272:64:64-i64:64-i128:128-f80:128-n8:16:32:64-S128"
target triple = "x86_64-pc-linux-gnu"

%"struct.net::QuicMultipathSentPacketManager::PathSentPacketManagerInfo" = type <{ ptr, i32, [4 x i8] }>
%"class.net::QuicMultipathSentPacketManager" = type { %"class.net::QuicSentPacketManagerInterface", %"class.std::vector", ptr }
%"class.net::QuicSentPacketManagerInterface" = type { ptr }
%"class.std::vector" = type { %"struct.std::_Vector_base" }
%"struct.std::_Vector_base" = type { %"struct.std::_Vector_base<net::QuicMultipathSentPacketManager::PathSentPacketManagerInfo, std::allocator<net::QuicMultipathSentPacketManager::PathSentPacketManagerInfo>>::_Vector_impl" }
%"struct.std::_Vector_base<net::QuicMultipathSentPacketManager::PathSentPacketManagerInfo, std::allocator<net::QuicMultipathSentPacketManager::PathSentPacketManagerInfo>>::_Vector_impl" = type { %"struct.std::_Vector_base<net::QuicMultipathSentPacketManager::PathSentPacketManagerInfo, std::allocator<net::QuicMultipathSentPacketManager::PathSentPacketManagerInfo>>::_Vector_impl_data" }
%"struct.std::_Vector_base<net::QuicMultipathSentPacketManager::PathSentPacketManagerInfo, std::allocator<net::QuicMultipathSentPacketManager::PathSentPacketManagerInfo>>::_Vector_impl_data" = type { ptr, ptr, ptr }
%"class.__gnu_cxx::__normal_iterator" = type { ptr }

@_ZN3net30QuicMultipathSentPacketManager25PathSentPacketManagerInfoC1ERKS1_ = unnamed_addr alias void (ptr, ptr), ptr @_ZN3net30QuicMultipathSentPacketManager25PathSentPacketManagerInfoC2ERKS1_

; Function Attrs: mustprogress nounwind uwtable
define linkonce_odr noundef nonnull align 8 dereferenceable(8) ptr @_ZNK9__gnu_cxx17__normal_iteratorIPN3net30QuicMultipathSentPacketManager25PathSentPacketManagerInfoESt6vectorIS3_SaIS3_EEE4baseEv(ptr noundef nonnull align 8 dereferenceable(8) %0) #2 comdat align 2 {
  %2 = alloca ptr, align 8
  store ptr %0, ptr %2, align 8, !tbaa !30
  %3 = load ptr, ptr %2, align 8
  %4 = getelementptr inbounds nuw %"class.__gnu_cxx::__normal_iterator", ptr %3, i32 0, i32 0
  ret ptr %4
}

; Function Attrs: mustprogress nounwind uwtable
define linkonce_odr void @_ZN9__gnu_cxx17__normal_iteratorIPN3net30QuicMultipathSentPacketManager25PathSentPacketManagerInfoESt6vectorIS3_SaIS3_EEEC2ERKS4_(ptr noundef nonnull align 8 dereferenceable(8) %0, ptr noundef nonnull align 8 dereferenceable(8) %1) unnamed_addr #2 comdat align 2 {
  %3 = alloca ptr, align 8
  %4 = alloca ptr, align 8
  store ptr %0, ptr %3, align 8, !tbaa !30
  store ptr %1, ptr %4, align 8, !tbaa !193
  %5 = load ptr, ptr %3, align 8
  %6 = getelementptr inbounds nuw %"class.__gnu_cxx::__normal_iterator", ptr %5, i32 0, i32 0
  %7 = load ptr, ptr %4, align 8, !tbaa !193
  %8 = load ptr, ptr %7, align 8, !tbaa !24
  store ptr %8, ptr %6, align 8, !tbaa !32
  ret void
}

; Function Attrs: mustprogress nounwind uwtable
define linkonce_odr noundef nonnull align 8 dereferenceable(8) ptr @_ZN9__gnu_cxx17__normal_iteratorIPN3net30QuicMultipathSentPacketManager25PathSentPacketManagerInfoESt6vectorIS3_SaIS3_EEEppEv(ptr noundef nonnull align 8 dereferenceable(8) %0) #2 comdat align 2 {
  %2 = alloca ptr, align 8
  store ptr %0, ptr %2, align 8, !tbaa !30
  %3 = load ptr, ptr %2, align 8
  %4 = getelementptr inbounds nuw %"class.__gnu_cxx::__normal_iterator", ptr %3, i32 0, i32 0
  %5 = load ptr, ptr %4, align 8, !tbaa !32
  %6 = getelementptr inbounds nuw %"struct.net::QuicMultipathSentPacketManager::PathSentPacketManagerInfo", ptr %5, i32 1
  store ptr %6, ptr %4, align 8, !tbaa !32
  ret ptr %3
}

; Function Attrs: mustprogress nounwind uwtable
define linkonce_odr noundef nonnull align 8 dereferenceable(12) ptr @_ZNK9__gnu_cxx17__normal_iteratorIPN3net30QuicMultipathSentPacketManager25PathSentPacketManagerInfoESt6vectorIS3_SaIS3_EEEdeEv(ptr noundef nonnull align 8 dereferenceable(8) %0) #2 comdat align 2 {
  %2 = alloca ptr, align 8
  store ptr %0, ptr %2, align 8, !tbaa !30
  %3 = load ptr, ptr %2, align 8
  %4 = getelementptr inbounds nuw %"class.__gnu_cxx::__normal_iterator", ptr %3, i32 0, i32 0
  %5 = load ptr, ptr %4, align 8, !tbaa !32
  ret ptr %5
}

; Function Attrs: inlinehint mustprogress nounwind uwtable
define linkonce_odr noundef zeroext i1 @_ZN9__gnu_cxxneIPN3net30QuicMultipathSentPacketManager25PathSentPacketManagerInfoESt6vectorIS3_SaIS3_EEEEbRKNS_17__normal_iteratorIT_T0_EESD_(ptr noundef nonnull align 8 dereferenceable(8) %0, ptr noundef nonnull align 8 dereferenceable(8) %1) #1 comdat {
  %3 = alloca ptr, align 8
  %4 = alloca ptr, align 8
  store ptr %0, ptr %3, align 8, !tbaa !30
  store ptr %1, ptr %4, align 8, !tbaa !30
  %5 = load ptr, ptr %3, align 8, !tbaa !30
  %6 = call noundef nonnull align 8 dereferenceable(8) ptr @_ZNK9__gnu_cxx17__normal_iteratorIPN3net30QuicMultipathSentPacketManager25PathSentPacketManagerInfoESt6vectorIS3_SaIS3_EEE4baseEv(ptr noundef nonnull align 8 dereferenceable(8) %5) #15
  %7 = load ptr, ptr %6, align 8, !tbaa !24
  %8 = load ptr, ptr %4, align 8, !tbaa !30
  %9 = call noundef nonnull align 8 dereferenceable(8) ptr @_ZNK9__gnu_cxx17__normal_iteratorIPN3net30QuicMultipathSentPacketManager25PathSentPacketManagerInfoESt6vectorIS3_SaIS3_EEE4baseEv(ptr noundef nonnull align 8 dereferenceable(8) %8) #15
  %10 = load ptr, ptr %9, align 8, !tbaa !24
  %11 = icmp ne ptr %7, %10
  ret i1 %11
}

; Function Attrs: mustprogress nounwind uwtable
define linkonce_odr ptr @_ZNSt6vectorIN3net30QuicMultipathSentPacketManager25PathSentPacketManagerInfoESaIS2_EE3endEv(ptr noundef nonnull align 8 dereferenceable(24) %0) #2 comdat align 2 {
  %2 = alloca %"class.__gnu_cxx::__normal_iterator", align 8
  %3 = alloca ptr, align 8
  store ptr %0, ptr %3, align 8, !tbaa !22
  %4 = load ptr, ptr %3, align 8
  %5 = getelementptr inbounds nuw %"struct.std::_Vector_base", ptr %4, i32 0, i32 0
  %6 = getelementptr inbounds nuw %"struct.std::_Vector_base<net::QuicMultipathSentPacketManager::PathSentPacketManagerInfo, std::allocator<net::QuicMultipathSentPacketManager::PathSentPacketManagerInfo>>::_Vector_impl_data", ptr %5, i32 0, i32 1
  call void @_ZN9__gnu_cxx17__normal_iteratorIPN3net30QuicMultipathSentPacketManager25PathSentPacketManagerInfoESt6vectorIS3_SaIS3_EEEC2ERKS4_(ptr noundef nonnull align 8 dereferenceable(8) %2, ptr noundef nonnull align 8 dereferenceable(8) %6) #15
  %7 = getelementptr inbounds nuw %"class.__gnu_cxx::__normal_iterator", ptr %2, i32 0, i32 0
  %8 = load ptr, ptr %7, align 8
  ret ptr %8
}

; Function Attrs: mustprogress nounwind uwtable
define linkonce_odr ptr @_ZNSt6vectorIN3net30QuicMultipathSentPacketManager25PathSentPacketManagerInfoESaIS2_EE5beginEv(ptr noundef nonnull align 8 dereferenceable(24) %0) #2 comdat align 2 {
  %2 = alloca %"class.__gnu_cxx::__normal_iterator", align 8
  %3 = alloca ptr, align 8
  store ptr %0, ptr %3, align 8, !tbaa !22
  %4 = load ptr, ptr %3, align 8
  %5 = getelementptr inbounds nuw %"struct.std::_Vector_base", ptr %4, i32 0, i32 0
  %6 = getelementptr inbounds nuw %"struct.std::_Vector_base<net::QuicMultipathSentPacketManager::PathSentPacketManagerInfo, std::allocator<net::QuicMultipathSentPacketManager::PathSentPacketManagerInfo>>::_Vector_impl_data", ptr %5, i32 0, i32 0
  call void @_ZN9__gnu_cxx17__normal_iteratorIPN3net30QuicMultipathSentPacketManager25PathSentPacketManagerInfoESt6vectorIS3_SaIS3_EEEC2ERKS4_(ptr noundef nonnull align 8 dereferenceable(8) %2, ptr noundef nonnull align 8 dereferenceable(8) %6) #15
  %7 = getelementptr inbounds nuw %"class.__gnu_cxx::__normal_iterator", ptr %2, i32 0, i32 0
  %8 = load ptr, ptr %7, align 8
  ret ptr %8
}

; Function Attrs: mustprogress uwtable
define noundef zeroext i1 @_ZN3net30QuicMultipathSentPacketManager28MaybeRetransmitTailLossProbeEv(ptr noundef nonnull align 8 dereferenceable(40) %0) unnamed_addr #0 align 2 {
  %2 = alloca i1, align 1
  %3 = alloca ptr, align 8
  %4 = alloca ptr, align 8
  %5 = alloca %"class.__gnu_cxx::__normal_iterator", align 8
  %6 = alloca %"class.__gnu_cxx::__normal_iterator", align 8
  %7 = alloca i32, align 4
  %8 = alloca %"struct.net::QuicMultipathSentPacketManager::PathSentPacketManagerInfo", align 8
  store ptr %0, ptr %3, align 8, !tbaa !3
  %9 = load ptr, ptr %3, align 8
  call void @llvm.lifetime.start.p0(i64 8, ptr %4) #15
  %10 = getelementptr inbounds nuw %"class.net::QuicMultipathSentPacketManager", ptr %9, i32 0, i32 1
  store ptr %10, ptr %4, align 8, !tbaa !22
  call void @llvm.lifetime.start.p0(i64 8, ptr %5) #15
  %11 = load ptr, ptr %4, align 8, !tbaa !22
  %12 = call ptr @_ZNSt6vectorIN3net30QuicMultipathSentPacketManager25PathSentPacketManagerInfoESaIS2_EE5beginEv(ptr noundef nonnull align 8 dereferenceable(24) %11) #15
  %13 = getelementptr inbounds nuw %"class.__gnu_cxx::__normal_iterator", ptr %5, i32 0, i32 0
  store ptr %12, ptr %13, align 8
  call void @llvm.lifetime.start.p0(i64 8, ptr %6) #15
  %14 = load ptr, ptr %4, align 8, !tbaa !22
  %15 = call ptr @_ZNSt6vectorIN3net30QuicMultipathSentPacketManager25PathSentPacketManagerInfoESaIS2_EE3endEv(ptr noundef nonnull align 8 dereferenceable(24) %14) #15
  %16 = getelementptr inbounds nuw %"class.__gnu_cxx::__normal_iterator", ptr %6, i32 0, i32 0
  store ptr %15, ptr %16, align 8
  br label %17

17:                                               ; preds = %42, %1
  %18 = call noundef zeroext i1 @_ZN9__gnu_cxxneIPN3net30QuicMultipathSentPacketManager25PathSentPacketManagerInfoESt6vectorIS3_SaIS3_EEEEbRKNS_17__normal_iteratorIT_T0_EESD_(ptr noundef nonnull align 8 dereferenceable(8) %5, ptr noundef nonnull align 8 dereferenceable(8) %6) #15
  br i1 %18, label %20, label %19

19:                                               ; preds = %17
  store i32 2, ptr %7, align 4
  br label %44

20:                                               ; preds = %17
  call void @llvm.lifetime.start.p0(i64 16, ptr %8) #15
  %21 = call noundef nonnull align 8 dereferenceable(12) ptr @_ZNK9__gnu_cxx17__normal_iteratorIPN3net30QuicMultipathSentPacketManager25PathSentPacketManagerInfoESt6vectorIS3_SaIS3_EEEdeEv(ptr noundef nonnull align 8 dereferenceable(8) %5) #15
  call void @_ZN3net30QuicMultipathSentPacketManager25PathSentPacketManagerInfoC1ERKS1_(ptr noundef nonnull align 8 dereferenceable(12) %8, ptr noundef nonnull align 8 dereferenceable(12) %21)
  %22 = getelementptr inbounds nuw %"struct.net::QuicMultipathSentPacketManager::PathSentPacketManagerInfo", ptr %8, i32 0, i32 0
  %23 = load ptr, ptr %22, align 8, !tbaa !27
  %24 = icmp ne ptr %23, null
  br i1 %24, label %25, label %38

25:                                               ; preds = %20
  %26 = getelementptr inbounds nuw %"struct.net::QuicMultipathSentPacketManager::PathSentPacketManagerInfo", ptr %8, i32 0, i32 1
  %27 = load i32, ptr %26, align 8, !tbaa !43
  %28 = icmp eq i32 %27, 0
  br i1 %28, label %29, label %38

29:                                               ; preds = %25
  %30 = getelementptr inbounds nuw %"struct.net::QuicMultipathSentPacketManager::PathSentPacketManagerInfo", ptr %8, i32 0, i32 0
  %31 = load ptr, ptr %30, align 8, !tbaa !27
  %32 = load ptr, ptr %31, align 8, !tbaa !12
  %33 = getelementptr inbounds ptr, ptr %32, i64 9
  %34 = load ptr, ptr %33, align 8
  %35 = call noundef zeroext i1 %34(ptr noundef nonnull align 8 dereferenceable(8) %31)
  br i1 %35, label %36, label %37

36:                                               ; preds = %29
  store i1 true, ptr %2, align 1
  store i32 1, ptr %7, align 4
  br label %39

37:                                               ; preds = %29
  br label %38

38:                                               ; preds = %37, %25, %20
  store i32 0, ptr %7, align 4
  br label %39

39:                                               ; preds = %38, %36
  call void @llvm.lifetime.end.p0(i64 16, ptr %8) #15
  %40 = load i32, ptr %7, align 4
  switch i32 %40, label %44 [
    i32 0, label %41
  ]

41:                                               ; preds = %39
  br label %42

42:                                               ; preds = %41
  %43 = call noundef nonnull align 8 dereferenceable(8) ptr @_ZN9__gnu_cxx17__normal_iteratorIPN3net30QuicMultipathSentPacketManager25PathSentPacketManagerInfoESt6vectorIS3_SaIS3_EEEppEv(ptr noundef nonnull align 8 dereferenceable(8) %5) #15
  br label %17

44:                                               ; preds = %39, %19
  call void @llvm.lifetime.end.p0(i64 8, ptr %6) #15
  call void @llvm.lifetime.end.p0(i64 8, ptr %5) #15
  call void @llvm.lifetime.end.p0(i64 8, ptr %4) #15
  %45 = load i32, ptr %7, align 4
  switch i32 %45, label %49 [
    i32 2, label %46
    i32 1, label %47
  ]

46:                                               ; preds = %44
  store i1 false, ptr %2, align 1
  br label %47

47:                                               ; preds = %46, %44
  %48 = load i1, ptr %2, align 1
  ret i1 %48

49:                                               ; preds = %44
  unreachable
}