; Function Attrs: mustprogress uwtable
define noundef zeroext i1 @_ZN3net30QuicMultipathSentPacketManager28MaybeRetransmitTailLossProbeEv(ptr noundef nonnull readonly align 8 captures(none) dereferenceable(40) %0) unnamed_addr #0 align 2 {
  %2 = alloca %"struct.net::QuicMultipathSentPacketManager::PathSentPacketManagerInfo", align 8
  %3 = getelementptr inbounds nuw i8, ptr %0, i64 8
  %4 = load ptr, ptr %3, align 8, !tbaa !20
  %5 = getelementptr inbounds nuw i8, ptr %0, i64 16
  %6 = load ptr, ptr %5, align 8, !tbaa !20
  %.not15.not = icmp eq ptr %4, %6
  br i1 %.not15.not, label %.loopexit, label %.lr.ph

.lr.ph:                                           ; preds = %1
  %7 = getelementptr inbounds nuw i8, ptr %2, i64 8
  br label %8

8:                                                ; preds = %.lr.ph, %.critedge
  %.sroa.010.016 = phi ptr [ %4, %.lr.ph ], [ %18, %.critedge ]
  call void @llvm.lifetime.start.p0(i64 16, ptr nonnull %2) #17
  call void @_ZN3net30QuicMultipathSentPacketManager25PathSentPacketManagerInfoC1ERKS1_(ptr noundef nonnull align 8 dereferenceable(12) %2, ptr noundef nonnull align 8 dereferenceable(12) %.sroa.010.016)
  %9 = load ptr, ptr %2, align 8, !tbaa !21
  %10 = icmp ne ptr %9, null
  %11 = load i32, ptr %7, align 8
  %12 = icmp eq i32 %11, 0
  %or.cond = select i1 %10, i1 %12, i1 false
  br i1 %or.cond, label %13, label %.critedge

13:                                               ; preds = %8
  %14 = load ptr, ptr %9, align 8, !tbaa !3
  %15 = getelementptr inbounds nuw i8, ptr %14, i64 72
  %16 = load ptr, ptr %15, align 8
  %17 = call noundef zeroext i1 %16(ptr noundef nonnull align 8 dereferenceable(8) %9)
  br i1 %17, label %19, label %.critedge

.critedge:                                        ; preds = %13, %8
  call void @llvm.lifetime.end.p0(i64 16, ptr nonnull %2) #17
  %18 = getelementptr inbounds nuw i8, ptr %.sroa.010.016, i64 16
  %.not.not = icmp eq ptr %18, %6
  br i1 %.not.not, label %.loopexit, label %8

19:                                               ; preds = %13
  call void @llvm.lifetime.end.p0(i64 16, ptr nonnull %2) #17
  br label %.loopexit

.loopexit:                                        ; preds = %.critedge, %1, %19
  %.not14 = phi i1 [ true, %19 ], [ false, %1 ], [ false, %.critedge ]
  ret i1 %.not14
}